; Function Attrs: null_pointer_is_valid sspstrong uwtable
define internal i32 @iremotewinspool_dissect_winspool_AsyncEnumPorts_response(ptr noundef %0, i32 noundef %1, ptr noundef %2, ptr noundef %3, ptr noundef initializes((72, 80)) %4, ptr noundef %5) #0 {
  %7 = alloca i32, align 4
  call void @llvm.lifetime.start.p0(i64 4, ptr nonnull %7) #3
  %8 = getelementptr inbounds nuw i8, ptr %4, i64 72
  store ptr @.str.570, ptr %8, align 8
  %9 = load i32, ptr @hf_iremotewinspool_winspool_AsyncEnumPorts_pPort, align 4
  %10 = tail call i32 @dissect_ndr_toplevel_pointer(ptr noundef %0, i32 noundef %1, ptr noundef %2, ptr noundef %3, ptr noundef %4, ptr noundef %5, ptr noundef nonnull @iremotewinspool_dissect_element_winspool_AsyncEnumPorts_pPort_, i32 noundef 2, ptr noundef nonnull @.str.658, i32 noundef %9)
  %11 = tail call i32 @dissect_deferred_pointers(ptr noundef %2, ptr noundef %0, i32 noundef %10, ptr noundef %4, ptr noundef %5)
  %12 = load i32, ptr @hf_iremotewinspool_winspool_AsyncEnumPorts_pcbNeeded, align 4
  %13 = tail call i32 @dissect_ndr_toplevel_pointer(ptr noundef %0, i32 noundef %11, ptr noundef %2, ptr noundef %3, ptr noundef %4, ptr noundef %5, ptr noundef nonnull @iremotewinspool_dissect_element_winspool_AsyncEnumPorts_pcbNeeded_, i32 noundef 1, ptr noundef nonnull @.str.611, i32 noundef %12)
  %14 = tail call i32 @dissect_deferred_pointers(ptr noundef %2, ptr noundef %0, i32 noundef %13, ptr noundef %4, ptr noundef %5)
  %15 = load i32, ptr @hf_iremotewinspool_winspool_AsyncEnumPorts_pcReturned, align 4
  %16 = tail call i32 @dissect_ndr_toplevel_pointer(ptr noundef %0, i32 noundef %14, ptr noundef %2, ptr noundef %3, ptr noundef %4, ptr noundef %5, ptr noundef nonnull @iremotewinspool_dissect_element_winspool_AsyncEnumPorts_pcReturned_, i32 noundef 1, ptr noundef nonnull @.str.612, i32 noundef %15)
  %17 = tail call i32 @dissect_deferred_pointers(ptr noundef %2, ptr noundef %0, i32 noundef %16, ptr noundef %4, ptr noundef %5)
  %18 = load i32, ptr @hf_iremotewinspool_werror, align 4
  %19 = call i32 @dissect_ndr_uint32(ptr noundef %0, i32 noundef %17, ptr noundef %2, ptr noundef %3, ptr noundef %4, ptr noundef %5, i32 noundef %18, ptr noundef nonnull %7)
  %20 = load i32, ptr %7, align 4
  %.not = icmp eq i32 %20, 0
  br i1 %.not, label %25, label %21

21:                                               ; preds = %6
  %22 = getelementptr inbounds nuw i8, ptr %2, i64 8
  %23 = load ptr, ptr %22, align 8
  %24 = call ptr @val_to_str_ext(i32 noundef %20, ptr noundef nonnull @WERR_errors_ext, ptr noundef nonnull @.str.604)
  call void (ptr, i32, ptr, ...) @col_append_fstr(ptr noundef %23, i32 noundef 25, ptr noundef nonnull @.str.603, ptr noundef %24)
  br label %25

25:                                               ; preds = %21, %6
  call void @llvm.lifetime.end.p0(i64 4, ptr nonnull %7) #3
  ret i32 %19
}